target datalayout = "e-m:e-p270:32:32-p271:32:32-p272:64:64-i64:64-i128:128-f80:128-n8:16:32:64-S128"
target triple = "x86_64-unknown-linux-gnu"

@_ZTIN6icu_7513DecimalFormatE = external constant ptr
@_ZTIN6icu_7512NumberFormatE = external constant ptr

; Function Attrs: mustprogress uwtable
define noundef ptr @_ZNK6icu_7513MessageFormat19createIntegerFormatERKNS_6LocaleER10UErrorCode(ptr noundef nonnull align 8 dereferenceable(816) %this, ptr noundef nonnull align 8 dereferenceable(217) %locale, ptr noundef nonnull align 4 dereferenceable(4) %status) #1 align 2 {
entry:
  %this.addr = alloca ptr, align 8
  %locale.addr = alloca ptr, align 8
  %status.addr = alloca ptr, align 8
  %temp = alloca ptr, align 8
  %temp2 = alloca ptr, align 8
  store ptr %this, ptr %this.addr, align 8
  store ptr %locale, ptr %locale.addr, align 8
  store ptr %status, ptr %status.addr, align 8
  %0 = load ptr, ptr %locale.addr, align 8
  %1 = load ptr, ptr %status.addr, align 8
  %call = call noundef ptr @_ZN6icu_7512NumberFormat14createInstanceERKNS_6LocaleER10UErrorCode(ptr noundef nonnull align 8 dereferenceable(217) %0, ptr noundef nonnull align 4 dereferenceable(4) %1)
  store ptr %call, ptr %temp, align 8
  %2 = load ptr, ptr %temp, align 8
  %cmp = icmp ne ptr %2, null
  br i1 %cmp, label %land.lhs.true, label %if.end

land.lhs.true:                                    ; preds = %entry
  %3 = load ptr, ptr %temp, align 8
  %4 = icmp eq ptr %3, null
  br i1 %4, label %dynamic_cast.null, label %dynamic_cast.notnull

dynamic_cast.notnull:                             ; preds = %land.lhs.true
  %5 = call ptr @__dynamic_cast(ptr %3, ptr @_ZTIN6icu_7512NumberFormatE, ptr @_ZTIN6icu_7513DecimalFormatE, i64 0) #11
  br label %dynamic_cast.end

dynamic_cast.null:                                ; preds = %land.lhs.true
  br label %dynamic_cast.end

dynamic_cast.end:                                 ; preds = %dynamic_cast.null, %dynamic_cast.notnull
  %6 = phi ptr [ %5, %dynamic_cast.notnull ], [ null, %dynamic_cast.null ]
  store ptr %6, ptr %temp2, align 8
  %cmp2 = icmp ne ptr %6, null
  br i1 %cmp2, label %if.then, label %if.end

if.then:                                          ; preds = %dynamic_cast.end
  %7 = load ptr, ptr %temp2, align 8
  %vtable = load ptr, ptr %7, align 8
  %vfn = getelementptr inbounds ptr, ptr %vtable, i64 29
  %8 = load ptr, ptr %vfn, align 8
  call void %8(ptr noundef nonnull align 8 dereferenceable(368) %7, i32 noundef 0)
  %9 = load ptr, ptr %temp2, align 8
  %vtable3 = load ptr, ptr %9, align 8
  %vfn4 = getelementptr inbounds ptr, ptr %vtable3, i64 66
  %10 = load ptr, ptr %vfn4, align 8
  call void %10(ptr noundef nonnull align 8 dereferenceable(368) %9, i8 noundef signext 0)
  %11 = load ptr, ptr %temp2, align 8
  %vtable5 = load ptr, ptr %11, align 8
  %vfn6 = getelementptr inbounds ptr, ptr %vtable5, i64 23
  %12 = load ptr, ptr %vfn6, align 8
  call void %12(ptr noundef nonnull align 8 dereferenceable(368) %11, i8 noundef signext 1)
  br label %if.end

if.end:                                           ; preds = %if.then, %dynamic_cast.end, %entry
  %13 = load ptr, ptr %temp, align 8
  ret ptr %13
}