; Function Attrs: mustprogress uwtable
define noundef ptr @_ZNK6icu_7513MessageFormat19createIntegerFormatERKNS_6LocaleER10UErrorCode(ptr nocapture nonnull readnone align 8 %this, ptr noundef nonnull align 8 dereferenceable(217) %locale, ptr noundef nonnull align 4 dereferenceable(4) %status) local_unnamed_addr #1 align 2 {
entry:
  %call = tail call noundef ptr @_ZN6icu_7512NumberFormat14createInstanceERKNS_6LocaleER10UErrorCode(ptr noundef nonnull align 8 dereferenceable(217) %locale, ptr noundef nonnull align 4 dereferenceable(4) %status)
  %cmp.not = icmp eq ptr %call, null
  br i1 %cmp.not, label %if.end, label %dynamic_cast.notnull

dynamic_cast.notnull:                             ; preds = %entry
  %0 = tail call ptr @__dynamic_cast(ptr nonnull %call, ptr nonnull @_ZTIN6icu_7512NumberFormatE, ptr nonnull @_ZTIN6icu_7513DecimalFormatE, i64 0) #19
  %cmp2.not = icmp eq ptr %0, null
  br i1 %cmp2.not, label %if.end, label %if.then

if.then:                                          ; preds = %dynamic_cast.notnull
  %vtable = load ptr, ptr %0, align 8
  %vfn = getelementptr inbounds i8, ptr %vtable, i64 232
  %1 = load ptr, ptr %vfn, align 8
  tail call void %1(ptr noundef nonnull align 8 dereferenceable(368) %0, i32 noundef 0)
  %vtable3 = load ptr, ptr %0, align 8
  %vfn4 = getelementptr inbounds i8, ptr %vtable3, i64 528
  %2 = load ptr, ptr %vfn4, align 8
  tail call void %2(ptr noundef nonnull align 8 dereferenceable(368) %0, i8 noundef signext 0)
  %vtable5 = load ptr, ptr %0, align 8
  %vfn6 = getelementptr inbounds i8, ptr %vtable5, i64 184
  %3 = load ptr, ptr %vfn6, align 8
  tail call void %3(ptr noundef nonnull align 8 dereferenceable(368) %0, i8 noundef signext 1)
  br label %if.end

if.end:                                           ; preds = %if.then, %dynamic_cast.notnull, %entry
  ret ptr %call
}